target datalayout = "e-m:e-p270:32:32-p271:32:32-p272:64:64-i64:64-i128:128-f80:128-n8:16:32:64-S128"
target triple = "x86_64-pc-linux-gnu"

@hf_q933_number_type = internal global i32 0, align 4
@hf_q933_numbering_plan = internal global i32 0, align 4
@hf_q933_screening_ind = internal global i32 0, align 4
@hf_q933_presentation_ind = internal global i32 0, align 4
@hf_q933_extension_ind = internal global i32 0, align 4
@hf_q933_reason_for_redirection = internal global i32 0, align 4

; Function Attrs: null_pointer_is_valid sspstrong uwtable
define internal void @dissect_q933_number_ie(ptr noundef %0, i32 noundef %1, i32 noundef %2, ptr noundef %3, i32 noundef %4) #0 {
  %6 = alloca ptr, align 8
  %7 = alloca i32, align 4
  %8 = alloca i32, align 4
  %9 = alloca ptr, align 8
  %10 = alloca i32, align 4
  %11 = alloca i8, align 1
  %12 = alloca i32, align 4
  store ptr %0, ptr %6, align 8
  store i32 %1, ptr %7, align 4
  store i32 %2, ptr %8, align 4
  store ptr %3, ptr %9, align 8
  store i32 %4, ptr %10, align 4
  call void @llvm.lifetime.start.p0(i64 1, ptr %11) #3
  %13 = load i32, ptr %8, align 4
  %14 = icmp eq i32 %13, 0
  br i1 %14, label %15, label %16

15:                                               ; preds = %5
  store i32 1, ptr %12, align 4
  br label %112

16:                                               ; preds = %5
  %17 = load ptr, ptr %6, align 8
  %18 = load i32, ptr %7, align 4
  %19 = call zeroext i8 @tvb_get_uint8(ptr noundef %17, i32 noundef %18)
  store i8 %19, ptr %11, align 1
  %20 = load ptr, ptr %9, align 8
  %21 = load i32, ptr @hf_q933_numbering_plan, align 4
  %22 = load ptr, ptr %6, align 8
  %23 = load i32, ptr %7, align 4
  %24 = load i8, ptr %11, align 1
  %25 = zext i8 %24 to i32
  %26 = call ptr @proto_tree_add_uint(ptr noundef %20, i32 noundef %21, ptr noundef %22, i32 noundef %23, i32 noundef 1, i32 noundef %25)
  %27 = load ptr, ptr %9, align 8
  %28 = load i32, ptr @hf_q933_number_type, align 4
  %29 = load ptr, ptr %6, align 8
  %30 = load i32, ptr %7, align 4
  %31 = load i8, ptr %11, align 1
  %32 = zext i8 %31 to i32
  %33 = call ptr @proto_tree_add_uint(ptr noundef %27, i32 noundef %28, ptr noundef %29, i32 noundef %30, i32 noundef 1, i32 noundef %32)
  %34 = load ptr, ptr %9, align 8
  %35 = load i32, ptr @hf_q933_extension_ind, align 4
  %36 = load ptr, ptr %6, align 8
  %37 = load i32, ptr %7, align 4
  %38 = load i8, ptr %11, align 1
  %39 = zext i8 %38 to i64
  %40 = call ptr @proto_tree_add_boolean(ptr noundef %34, i32 noundef %35, ptr noundef %36, i32 noundef %37, i32 noundef 1, i64 noundef %39)
  %41 = load i32, ptr %7, align 4
  %42 = add i32 %41, 1
  store i32 %42, ptr %7, align 4
  %43 = load i32, ptr %8, align 4
  %44 = sub i32 %43, 1
  store i32 %44, ptr %8, align 4
  %45 = load i8, ptr %11, align 1
  %46 = zext i8 %45 to i32
  %47 = and i32 %46, 128
  %48 = icmp ne i32 %47, 0
  br i1 %48, label %82, label %49

49:                                               ; preds = %16
  %50 = load i32, ptr %8, align 4
  %51 = icmp eq i32 %50, 0
  br i1 %51, label %52, label %53

52:                                               ; preds = %49
  store i32 1, ptr %12, align 4
  br label %112

53:                                               ; preds = %49
  %54 = load ptr, ptr %6, align 8
  %55 = load i32, ptr %7, align 4
  %56 = call zeroext i8 @tvb_get_uint8(ptr noundef %54, i32 noundef %55)
  store i8 %56, ptr %11, align 1
  %57 = load ptr, ptr %9, align 8
  %58 = load i32, ptr @hf_q933_screening_ind, align 4
  %59 = load ptr, ptr %6, align 8
  %60 = load i32, ptr %7, align 4
  %61 = load i8, ptr %11, align 1
  %62 = zext i8 %61 to i32
  %63 = call ptr @proto_tree_add_uint(ptr noundef %57, i32 noundef %58, ptr noundef %59, i32 noundef %60, i32 noundef 1, i32 noundef %62)
  %64 = load ptr, ptr %9, align 8
  %65 = load i32, ptr @hf_q933_presentation_ind, align 4
  %66 = load ptr, ptr %6, align 8
  %67 = load i32, ptr %7, align 4
  %68 = load i8, ptr %11, align 1
  %69 = zext i8 %68 to i32
  %70 = call ptr @proto_tree_add_uint(ptr noundef %64, i32 noundef %65, ptr noundef %66, i32 noundef %67, i32 noundef 1, i32 noundef %69)
  %71 = load ptr, ptr %9, align 8
  %72 = load i32, ptr @hf_q933_extension_ind, align 4
  %73 = load ptr, ptr %6, align 8
  %74 = load i32, ptr %7, align 4
  %75 = load i8, ptr %11, align 1
  %76 = zext i8 %75 to i64
  %77 = call ptr @proto_tree_add_boolean(ptr noundef %71, i32 noundef %72, ptr noundef %73, i32 noundef %74, i32 noundef 1, i64 noundef %76)
  %78 = load i32, ptr %7, align 4
  %79 = add i32 %78, 1
  store i32 %79, ptr %7, align 4
  %80 = load i32, ptr %8, align 4
  %81 = sub i32 %80, 1
  store i32 %81, ptr %8, align 4
  br label %82

82:                                               ; preds = %53, %16
  %83 = load i8, ptr %11, align 1
  %84 = zext i8 %83 to i32
  %85 = and i32 %84, 128
  %86 = icmp ne i32 %85, 0
  br i1 %86, label %101, label %87

87:                                               ; preds = %82
  %88 = load i32, ptr %8, align 4
  %89 = icmp eq i32 %88, 0
  br i1 %89, label %90, label %91

90:                                               ; preds = %87
  store i32 1, ptr %12, align 4
  br label %112

91:                                               ; preds = %87
  %92 = load ptr, ptr %9, align 8
  %93 = load i32, ptr @hf_q933_reason_for_redirection, align 4
  %94 = load ptr, ptr %6, align 8
  %95 = load i32, ptr %7, align 4
  %96 = call ptr @proto_tree_add_item(ptr noundef %92, i32 noundef %93, ptr noundef %94, i32 noundef %95, i32 noundef 1, i32 noundef 0)
  %97 = load i32, ptr %7, align 4
  %98 = add i32 %97, 1
  store i32 %98, ptr %7, align 4
  %99 = load i32, ptr %8, align 4
  %100 = sub i32 %99, 1
  store i32 %100, ptr %8, align 4
  br label %101

101:                                              ; preds = %91, %82
  %102 = load i32, ptr %8, align 4
  %103 = icmp eq i32 %102, 0
  br i1 %103, label %104, label %105

104:                                              ; preds = %101
  store i32 1, ptr %12, align 4
  br label %112

105:                                              ; preds = %101
  %106 = load ptr, ptr %9, align 8
  %107 = load i32, ptr %10, align 4
  %108 = load ptr, ptr %6, align 8
  %109 = load i32, ptr %7, align 4
  %110 = load i32, ptr %8, align 4
  %111 = call ptr @proto_tree_add_item(ptr noundef %106, i32 noundef %107, ptr noundef %108, i32 noundef %109, i32 noundef %110, i32 noundef 0)
  store i32 0, ptr %12, align 4
  br label %112

112:                                              ; preds = %105, %104, %90, %52, %15
  call void @llvm.lifetime.end.p0(i64 1, ptr %11) #3
  %113 = load i32, ptr %12, align 4
  switch i32 %113, label %115 [
    i32 0, label %114
    i32 1, label %114
  ]

114:                                              ; preds = %112, %112
  ret void

115:                                              ; preds = %112
  unreachable
}