; Function Attrs: null_pointer_is_valid sspstrong uwtable
define internal fastcc void @dissect_q933_number_ie(ptr noundef %0, i32 noundef %1, i32 noundef range(i32 0, 256) %2, ptr noundef %3, i32 noundef %4) unnamed_addr #0 {
  %6 = icmp eq i32 %2, 0
  br i1 %6, label %44, label %7

7:                                                ; preds = %5
  %8 = tail call zeroext i8 @tvb_get_uint8(ptr noundef %0, i32 noundef %1)
  %9 = load i32, ptr @hf_q933_numbering_plan, align 4
  %10 = zext i8 %8 to i32
  %11 = tail call ptr @proto_tree_add_uint(ptr noundef %3, i32 noundef %9, ptr noundef %0, i32 noundef %1, i32 noundef 1, i32 noundef %10)
  %12 = load i32, ptr @hf_q933_number_type, align 4
  %13 = tail call ptr @proto_tree_add_uint(ptr noundef %3, i32 noundef %12, ptr noundef %0, i32 noundef %1, i32 noundef 1, i32 noundef %10)
  %14 = load i32, ptr @hf_q933_extension_ind, align 4
  %15 = zext i8 %8 to i64
  %16 = tail call ptr @proto_tree_add_boolean(ptr noundef %3, i32 noundef %14, ptr noundef %0, i32 noundef %1, i32 noundef 1, i64 noundef %15)
  %17 = add i32 %1, 1
  %18 = add nsw i32 %2, -1
  %.not = icmp sgt i8 %8, -1
  br i1 %.not, label %19, label %.thread

19:                                               ; preds = %7
  %20 = icmp eq i32 %18, 0
  br i1 %20, label %44, label %21

21:                                               ; preds = %19
  %22 = tail call zeroext i8 @tvb_get_uint8(ptr noundef %0, i32 noundef %17)
  %23 = load i32, ptr @hf_q933_screening_ind, align 4
  %24 = zext i8 %22 to i32
  %25 = tail call ptr @proto_tree_add_uint(ptr noundef %3, i32 noundef %23, ptr noundef %0, i32 noundef %17, i32 noundef 1, i32 noundef %24)
  %26 = load i32, ptr @hf_q933_presentation_ind, align 4
  %27 = tail call ptr @proto_tree_add_uint(ptr noundef %3, i32 noundef %26, ptr noundef %0, i32 noundef %17, i32 noundef 1, i32 noundef %24)
  %28 = load i32, ptr @hf_q933_extension_ind, align 4
  %29 = zext i8 %22 to i64
  %30 = tail call ptr @proto_tree_add_boolean(ptr noundef %3, i32 noundef %28, ptr noundef %0, i32 noundef %17, i32 noundef 1, i64 noundef %29)
  %31 = add i32 %1, 2
  %32 = add nsw i32 %2, -2
  %33 = icmp sgt i8 %22, -1
  br i1 %33, label %34, label %.thread

34:                                               ; preds = %21
  %35 = icmp eq i32 %32, 0
  br i1 %35, label %44, label %36

36:                                               ; preds = %34
  %37 = load i32, ptr @hf_q933_reason_for_redirection, align 4
  %38 = tail call ptr @proto_tree_add_item(ptr noundef %3, i32 noundef %37, ptr noundef %0, i32 noundef %31, i32 noundef 1, i32 noundef 0)
  %39 = add i32 %1, 3
  %40 = add nsw i32 %2, -3
  br label %.thread

.thread:                                          ; preds = %7, %36, %21
  %.149 = phi i32 [ %32, %21 ], [ %40, %36 ], [ %18, %7 ]
  %.1 = phi i32 [ %31, %21 ], [ %39, %36 ], [ %17, %7 ]
  %41 = icmp eq i32 %.149, 0
  br i1 %41, label %44, label %42

42:                                               ; preds = %.thread
  %43 = tail call ptr @proto_tree_add_item(ptr noundef %3, i32 noundef %4, ptr noundef %0, i32 noundef %.1, i32 noundef %.149, i32 noundef 0)
  br label %44

44:                                               ; preds = %.thread, %34, %19, %5, %42
  ret void
}